target datalayout = "e-m:e-p270:32:32-p271:32:32-p272:64:64-i64:64-i128:128-f80:128-n8:16:32:64-S128"
target triple = "x86_64-pc-linux-gnu"

%"class.rocksdb::MemTableListVersion" = type { %"class.std::__cxx11::list", %"class.std::__cxx11::list", i32, i64, i32, ptr, i64 }
%"class.std::__cxx11::list" = type { %"class.std::__cxx11::_List_base" }
%"class.std::__cxx11::_List_base" = type { %"struct.std::__cxx11::_List_base<rocksdb::ReadOnlyMemTable *, std::allocator<rocksdb::ReadOnlyMemTable *>>::_List_impl" }
%"struct.std::__cxx11::_List_base<rocksdb::ReadOnlyMemTable *, std::allocator<rocksdb::ReadOnlyMemTable *>>::_List_impl" = type { %"struct.std::__detail::_List_node_header" }
%"struct.std::__detail::_List_node_header" = type { %"struct.std::__detail::_List_node_base", i64 }
%"struct.std::__detail::_List_node_base" = type { ptr, ptr }
%"struct.std::_List_iterator" = type { ptr }
%"class.rocksdb::Status" = type { i8, i8, i8, i8, i8, i8, %"class.std::unique_ptr.49" }
%"class.std::unique_ptr.49" = type { %"struct.std::__uniq_ptr_data.50" }
%"struct.std::__uniq_ptr_data.50" = type { %"class.std::__uniq_ptr_impl.51" }
%"class.std::__uniq_ptr_impl.51" = type { %"class.std::tuple.52" }
%"class.std::tuple.52" = type { %"struct.std::_Tuple_impl.53" }
%"struct.std::_Tuple_impl.53" = type { %"struct.std::_Head_base.56" }
%"struct.std::_Head_base.56" = type { ptr }
%"struct.std::_List_node" = type { %"struct.std::__detail::_List_node_base", %"struct.__gnu_cxx::__aligned_membuf" }
%"struct.__gnu_cxx::__aligned_membuf" = type { [8 x i8] }

; Function Attrs: mustprogress nounwind uwtable
define linkonce_odr noundef ptr @_ZN9__gnu_cxx16__aligned_membufIPN7rocksdb16ReadOnlyMemTableEE7_M_addrEv(ptr noundef nonnull align 8 dereferenceable(8) %0) #3 comdat align 2 {
  %2 = alloca ptr, align 8
  store ptr %0, ptr %2, align 8, !tbaa !758
  %3 = load ptr, ptr %2, align 8
  %4 = getelementptr inbounds nuw %"struct.__gnu_cxx::__aligned_membuf", ptr %3, i32 0, i32 0
  ret ptr %4
}

; Function Attrs: mustprogress nounwind uwtable
define linkonce_odr noundef ptr @_ZN9__gnu_cxx16__aligned_membufIPN7rocksdb16ReadOnlyMemTableEE6_M_ptrEv(ptr noundef nonnull align 8 dereferenceable(8) %0) #3 comdat align 2 {
  %2 = alloca ptr, align 8
  store ptr %0, ptr %2, align 8, !tbaa !758
  %3 = load ptr, ptr %2, align 8
  %4 = call noundef ptr @_ZN9__gnu_cxx16__aligned_membufIPN7rocksdb16ReadOnlyMemTableEE7_M_addrEv(ptr noundef nonnull align 8 dereferenceable(8) %3) #4
  ret ptr %4
}

; Function Attrs: mustprogress nounwind uwtable
define linkonce_odr noundef zeroext i8 @_ZNK7rocksdb6Status4codeEv(ptr noundef nonnull align 8 dereferenceable(16) %0) #3 comdat align 2 {
  %2 = alloca ptr, align 8
  store ptr %0, ptr %2, align 8, !tbaa !153
  %3 = load ptr, ptr %2, align 8
  call void @_ZNK7rocksdb6Status11MarkCheckedEv(ptr noundef nonnull align 8 dereferenceable(16) %3)
  %4 = getelementptr inbounds nuw %"class.rocksdb::Status", ptr %3, i32 0, i32 0
  %5 = load i8, ptr %4, align 8, !tbaa !314
  ret i8 %5
}

; Function Attrs: inlinehint mustprogress nounwind uwtable
define linkonce_odr void @_ZNK7rocksdb6Status11MarkCheckedEv(ptr noundef nonnull align 8 dereferenceable(16) %0) #1 comdat align 2 {
  %2 = alloca ptr, align 8
  store ptr %0, ptr %2, align 8, !tbaa !153
  ret void
}

; Function Attrs: mustprogress nounwind uwtable
define linkonce_odr noundef ptr @_ZNSt10_List_nodeIPN7rocksdb16ReadOnlyMemTableEE9_M_valptrEv(ptr noundef nonnull align 8 dereferenceable(24) %0) #3 comdat align 2 {
  %2 = alloca ptr, align 8
  store ptr %0, ptr %2, align 8, !tbaa !755
  %3 = load ptr, ptr %2, align 8
  %4 = getelementptr inbounds nuw %"struct.std::_List_node", ptr %3, i32 0, i32 1
  %5 = call noundef ptr @_ZN9__gnu_cxx16__aligned_membufIPN7rocksdb16ReadOnlyMemTableEE6_M_ptrEv(ptr noundef nonnull align 8 dereferenceable(8) %4) #4
  ret ptr %5
}

; Function Attrs: mustprogress nounwind uwtable
define linkonce_odr void @_ZNSt14_List_iteratorIPN7rocksdb16ReadOnlyMemTableEEC2EPNSt8__detail15_List_node_baseE(ptr noundef nonnull align 8 dereferenceable(8) %0, ptr noundef %1) unnamed_addr #3 comdat align 2 {
  %3 = alloca ptr, align 8
  %4 = alloca ptr, align 8
  store ptr %0, ptr %3, align 8, !tbaa !134
  store ptr %1, ptr %4, align 8, !tbaa !259
  %5 = load ptr, ptr %3, align 8
  %6 = getelementptr inbounds nuw %"struct.std::_List_iterator", ptr %5, i32 0, i32 0
  %7 = load ptr, ptr %4, align 8, !tbaa !259
  store ptr %7, ptr %6, align 8, !tbaa !136
  ret void
}

; Function Attrs: mustprogress nounwind uwtable
define linkonce_odr noundef nonnull align 8 dereferenceable(8) ptr @_ZNSt14_List_iteratorIPN7rocksdb16ReadOnlyMemTableEEppEv(ptr noundef nonnull align 8 dereferenceable(8) %0) #3 comdat align 2 {
  %2 = alloca ptr, align 8
  store ptr %0, ptr %2, align 8, !tbaa !134
  %3 = load ptr, ptr %2, align 8
  %4 = getelementptr inbounds nuw %"struct.std::_List_iterator", ptr %3, i32 0, i32 0
  %5 = load ptr, ptr %4, align 8, !tbaa !136
  %6 = getelementptr inbounds nuw %"struct.std::__detail::_List_node_base", ptr %5, i32 0, i32 0
  %7 = load ptr, ptr %6, align 8, !tbaa !65
  %8 = getelementptr inbounds nuw %"struct.std::_List_iterator", ptr %3, i32 0, i32 0
  store ptr %7, ptr %8, align 8, !tbaa !136
  ret ptr %3
}

; Function Attrs: mustprogress nounwind uwtable
define linkonce_odr noundef zeroext i1 @_ZNK7rocksdb6Status10IsNotFoundEv(ptr noundef nonnull align 8 dereferenceable(16) %0) #3 comdat align 2 {
  %2 = alloca ptr, align 8
  store ptr %0, ptr %2, align 8, !tbaa !153
  %3 = load ptr, ptr %2, align 8
  call void @_ZNK7rocksdb6Status11MarkCheckedEv(ptr noundef nonnull align 8 dereferenceable(16) %3)
  %4 = call noundef zeroext i8 @_ZNK7rocksdb6Status4codeEv(ptr noundef nonnull align 8 dereferenceable(16) %3)
  %5 = zext i8 %4 to i32
  %6 = icmp eq i32 %5, 1
  ret i1 %6
}

; Function Attrs: mustprogress nounwind uwtable
define linkonce_odr noundef zeroext i1 @_ZNK7rocksdb6Status17IsMergeInProgressEv(ptr noundef nonnull align 8 dereferenceable(16) %0) #3 comdat align 2 {
  %2 = alloca ptr, align 8
  store ptr %0, ptr %2, align 8, !tbaa !153
  %3 = load ptr, ptr %2, align 8
  call void @_ZNK7rocksdb6Status11MarkCheckedEv(ptr noundef nonnull align 8 dereferenceable(16) %3)
  %4 = call noundef zeroext i8 @_ZNK7rocksdb6Status4codeEv(ptr noundef nonnull align 8 dereferenceable(16) %3)
  %5 = zext i8 %4 to i32
  %6 = icmp eq i32 %5, 6
  ret i1 %6
}

; Function Attrs: mustprogress uwtable
define linkonce_odr noundef zeroext i1 @_ZNK7rocksdb6Status2okEv(ptr noundef nonnull align 8 dereferenceable(16) %0) #5 comdat align 2 {
  %2 = alloca ptr, align 8
  store ptr %0, ptr %2, align 8, !tbaa !153
  %3 = load ptr, ptr %2, align 8
  call void @_ZNK7rocksdb6Status11MarkCheckedEv(ptr noundef nonnull align 8 dereferenceable(16) %3)
  %4 = call noundef zeroext i8 @_ZNK7rocksdb6Status4codeEv(ptr noundef nonnull align 8 dereferenceable(16) %3)
  %5 = zext i8 %4 to i32
  %6 = icmp eq i32 %5, 0
  ret i1 %6
}

; Function Attrs: mustprogress nounwind uwtable
define linkonce_odr noundef nonnull align 8 dereferenceable(8) ptr @_ZNKSt14_List_iteratorIPN7rocksdb16ReadOnlyMemTableEEdeEv(ptr noundef nonnull align 8 dereferenceable(8) %0) #3 comdat align 2 {
  %2 = alloca ptr, align 8
  store ptr %0, ptr %2, align 8, !tbaa !134
  %3 = load ptr, ptr %2, align 8
  %4 = getelementptr inbounds nuw %"struct.std::_List_iterator", ptr %3, i32 0, i32 0
  %5 = load ptr, ptr %4, align 8, !tbaa !136
  %6 = call noundef ptr @_ZNSt10_List_nodeIPN7rocksdb16ReadOnlyMemTableEE9_M_valptrEv(ptr noundef nonnull align 8 dereferenceable(24) %5)
  ret ptr %6
}

; Function Attrs: mustprogress nounwind uwtable
define linkonce_odr noundef zeroext i1 @_ZStneRKSt14_List_iteratorIPN7rocksdb16ReadOnlyMemTableEES5_(ptr noundef nonnull align 8 dereferenceable(8) %0, ptr noundef nonnull align 8 dereferenceable(8) %1) #3 comdat {
  %3 = alloca ptr, align 8
  %4 = alloca ptr, align 8
  store ptr %0, ptr %3, align 8, !tbaa !134
  store ptr %1, ptr %4, align 8, !tbaa !134
  %5 = load ptr, ptr %3, align 8, !tbaa !134
  %6 = getelementptr inbounds nuw %"struct.std::_List_iterator", ptr %5, i32 0, i32 0
  %7 = load ptr, ptr %6, align 8, !tbaa !136
  %8 = load ptr, ptr %4, align 8, !tbaa !134
  %9 = getelementptr inbounds nuw %"struct.std::_List_iterator", ptr %8, i32 0, i32 0
  %10 = load ptr, ptr %9, align 8, !tbaa !136
  %11 = icmp ne ptr %7, %10
  ret i1 %11
}

; Function Attrs: mustprogress nounwind uwtable
define linkonce_odr ptr @_ZNSt7__cxx114listIPN7rocksdb16ReadOnlyMemTableESaIS3_EE3endEv(ptr noundef nonnull align 8 dereferenceable(24) %0) #3 comdat align 2 {
  %2 = alloca %"struct.std::_List_iterator", align 8
  %3 = alloca ptr, align 8
  store ptr %0, ptr %3, align 8, !tbaa !63
  %4 = load ptr, ptr %3, align 8
  %5 = getelementptr inbounds nuw %"class.std::__cxx11::_List_base", ptr %4, i32 0, i32 0
  %6 = getelementptr inbounds nuw %"struct.std::__cxx11::_List_base<rocksdb::ReadOnlyMemTable *, std::allocator<rocksdb::ReadOnlyMemTable *>>::_List_impl", ptr %5, i32 0, i32 0
  call void @_ZNSt14_List_iteratorIPN7rocksdb16ReadOnlyMemTableEEC2EPNSt8__detail15_List_node_baseE(ptr noundef nonnull align 8 dereferenceable(8) %2, ptr noundef %6) #4
  %7 = getelementptr inbounds nuw %"struct.std::_List_iterator", ptr %2, i32 0, i32 0
  %8 = load ptr, ptr %7, align 8
  ret ptr %8
}

; Function Attrs: mustprogress nounwind uwtable
define linkonce_odr ptr @_ZNSt7__cxx114listIPN7rocksdb16ReadOnlyMemTableESaIS3_EE5beginEv(ptr noundef nonnull align 8 dereferenceable(24) %0) #3 comdat align 2 {
  %2 = alloca %"struct.std::_List_iterator", align 8
  %3 = alloca ptr, align 8
  store ptr %0, ptr %3, align 8, !tbaa !63
  %4 = load ptr, ptr %3, align 8
  %5 = getelementptr inbounds nuw %"class.std::__cxx11::_List_base", ptr %4, i32 0, i32 0
  %6 = getelementptr inbounds nuw %"struct.std::__cxx11::_List_base<rocksdb::ReadOnlyMemTable *, std::allocator<rocksdb::ReadOnlyMemTable *>>::_List_impl", ptr %5, i32 0, i32 0
  %7 = getelementptr inbounds nuw %"struct.std::__detail::_List_node_base", ptr %6, i32 0, i32 0
  %8 = load ptr, ptr %7, align 8, !tbaa !65
  call void @_ZNSt14_List_iteratorIPN7rocksdb16ReadOnlyMemTableEEC2EPNSt8__detail15_List_node_baseE(ptr noundef nonnull align 8 dereferenceable(8) %2, ptr noundef %8) #4
  %9 = getelementptr inbounds nuw %"struct.std::_List_iterator", ptr %2, i32 0, i32 0
  %10 = load ptr, ptr %9, align 8
  ret ptr %10
}

; Function Attrs: mustprogress uwtable
define noundef zeroext i1 @_ZN7rocksdb19MemTableListVersion11GetFromListEPNSt7__cxx114listIPNS_16ReadOnlyMemTableESaIS4_EEERKNS_9LookupKeyEPNS1_12basic_stringIcSt11char_traitsIcESaIcEEEPNS_19PinnableWideColumnsESG_PNS_6StatusEPNS_12MergeContextEPmSN_RKNS_11ReadOptionsEPNS_12ReadCallbackEPb(ptr noundef nonnull align 8 dereferenceable(88) %0, ptr noundef %1, ptr noundef nonnull align 8 dereferenceable(224) %2, ptr noundef %3, ptr noundef %4, ptr noundef %5, ptr noundef %6, ptr noundef %7, ptr noundef %8, ptr noundef %9, ptr noundef nonnull align 8 dereferenceable(168) %10, ptr noundef %11, ptr noundef %12) #5 align 2 {
  %14 = alloca i1, align 1
  %15 = alloca ptr, align 8
  %16 = alloca ptr, align 8
  %17 = alloca ptr, align 8
  %18 = alloca ptr, align 8
  %19 = alloca ptr, align 8
  %20 = alloca ptr, align 8
  %21 = alloca ptr, align 8
  %22 = alloca ptr, align 8
  %23 = alloca ptr, align 8
  %24 = alloca ptr, align 8
  %25 = alloca ptr, align 8
  %26 = alloca ptr, align 8
  %27 = alloca ptr, align 8
  %28 = alloca ptr, align 8
  %29 = alloca %"struct.std::_List_iterator", align 8
  %30 = alloca %"struct.std::_List_iterator", align 8
  %31 = alloca i32, align 4
  %32 = alloca ptr, align 8
  %33 = alloca i64, align 8
  %34 = alloca i8, align 1
  store ptr %0, ptr %15, align 8, !tbaa !48
  store ptr %1, ptr %16, align 8, !tbaa !63
  store ptr %2, ptr %17, align 8, !tbaa !149
  store ptr %3, ptr %18, align 8, !tbaa !25
  store ptr %4, ptr %19, align 8, !tbaa !151
  store ptr %5, ptr %20, align 8, !tbaa !25
  store ptr %6, ptr %21, align 8, !tbaa !153
  store ptr %7, ptr %22, align 8, !tbaa !155
  store ptr %8, ptr %23, align 8, !tbaa !129
  store ptr %9, ptr %24, align 8, !tbaa !129
  store ptr %10, ptr %25, align 8, !tbaa !157
  store ptr %11, ptr %26, align 8, !tbaa !159
  store ptr %12, ptr %27, align 8, !tbaa !161
  %35 = load ptr, ptr %24, align 8, !tbaa !129
  store i64 72057594037927935, ptr %35, align 8, !tbaa !4
  call void @llvm.lifetime.start.p0(i64 8, ptr %28) #4
  %36 = load ptr, ptr %16, align 8, !tbaa !63
  store ptr %36, ptr %28, align 8, !tbaa !63
  call void @llvm.lifetime.start.p0(i64 8, ptr %29) #4
  %37 = load ptr, ptr %28, align 8, !tbaa !63
  %38 = call ptr @_ZNSt7__cxx114listIPN7rocksdb16ReadOnlyMemTableESaIS3_EE5beginEv(ptr noundef nonnull align 8 dereferenceable(24) %37) #4
  %39 = getelementptr inbounds nuw %"struct.std::_List_iterator", ptr %29, i32 0, i32 0
  store ptr %38, ptr %39, align 8
  call void @llvm.lifetime.start.p0(i64 8, ptr %30) #4
  %40 = load ptr, ptr %28, align 8, !tbaa !63
  %41 = call ptr @_ZNSt7__cxx114listIPN7rocksdb16ReadOnlyMemTableESaIS3_EE3endEv(ptr noundef nonnull align 8 dereferenceable(24) %40) #4
  %42 = getelementptr inbounds nuw %"struct.std::_List_iterator", ptr %30, i32 0, i32 0
  store ptr %41, ptr %42, align 8
  br label %43

43:                                               ; preds = %92, %13
  %44 = call noundef zeroext i1 @_ZStneRKSt14_List_iteratorIPN7rocksdb16ReadOnlyMemTableEES5_(ptr noundef nonnull align 8 dereferenceable(8) %29, ptr noundef nonnull align 8 dereferenceable(8) %30) #4
  br i1 %44, label %46, label %45

45:                                               ; preds = %43
  store i32 2, ptr %31, align 4
  br label %94

46:                                               ; preds = %43
  call void @llvm.lifetime.start.p0(i64 8, ptr %32) #4
  %47 = call noundef nonnull align 8 dereferenceable(8) ptr @_ZNKSt14_List_iteratorIPN7rocksdb16ReadOnlyMemTableEEdeEv(ptr noundef nonnull align 8 dereferenceable(8) %29) #4
  store ptr %47, ptr %32, align 8, !tbaa !66
  call void @llvm.lifetime.start.p0(i64 8, ptr %33) #4
  store i64 72057594037927935, ptr %33, align 8, !tbaa !4
  call void @llvm.lifetime.start.p0(i64 1, ptr %34) #4
  %48 = load ptr, ptr %32, align 8, !tbaa !66
  %49 = load ptr, ptr %48, align 8, !tbaa !50
  %50 = load ptr, ptr %17, align 8, !tbaa !149
  %51 = load ptr, ptr %18, align 8, !tbaa !25
  %52 = load ptr, ptr %19, align 8, !tbaa !151
  %53 = load ptr, ptr %20, align 8, !tbaa !25
  %54 = load ptr, ptr %21, align 8, !tbaa !153
  %55 = load ptr, ptr %22, align 8, !tbaa !155
  %56 = load ptr, ptr %23, align 8, !tbaa !129
  %57 = load ptr, ptr %25, align 8, !tbaa !157
  %58 = load ptr, ptr %26, align 8, !tbaa !159
  %59 = load ptr, ptr %27, align 8, !tbaa !161
  %60 = load ptr, ptr %49, align 8, !tbaa !52
  %61 = getelementptr inbounds ptr, ptr %60, i64 10
  %62 = load ptr, ptr %61, align 8
  %63 = call noundef zeroext i1 %62(ptr noundef nonnull align 8 dereferenceable(560) %49, ptr noundef nonnull align 8 dereferenceable(224) %50, ptr noundef %51, ptr noundef %52, ptr noundef %53, ptr noundef %54, ptr noundef %55, ptr noundef %56, ptr noundef %33, ptr noundef nonnull align 8 dereferenceable(168) %57, i1 noundef zeroext true, ptr noundef %58, ptr noundef %59, i1 noundef zeroext true)
  %64 = zext i1 %63 to i8
  store i8 %64, ptr %34, align 1, !tbaa !163
  %65 = load ptr, ptr %24, align 8, !tbaa !129
  %66 = load i64, ptr %65, align 8, !tbaa !4
  %67 = icmp eq i64 %66, 72057594037927935
  br i1 %67, label %68, label %71

68:                                               ; preds = %46
  %69 = load i64, ptr %33, align 8, !tbaa !4
  %70 = load ptr, ptr %24, align 8, !tbaa !129
  store i64 %69, ptr %70, align 8, !tbaa !4
  br label %71

71:                                               ; preds = %68, %46
  %72 = load i8, ptr %34, align 1, !tbaa !163, !range !164, !noundef !165
  %73 = trunc i8 %72 to i1
  br i1 %73, label %74, label %75

74:                                               ; preds = %71
  store i1 true, ptr %14, align 1
  store i32 1, ptr %31, align 4
  br label %86

75:                                               ; preds = %71
  %76 = load ptr, ptr %21, align 8, !tbaa !153
  %77 = call noundef zeroext i1 @_ZNK7rocksdb6Status2okEv(ptr noundef nonnull align 8 dereferenceable(16) %76)
  br i1 %77, label %85, label %78

78:                                               ; preds = %75
  %79 = load ptr, ptr %21, align 8, !tbaa !153
  %80 = call noundef zeroext i1 @_ZNK7rocksdb6Status17IsMergeInProgressEv(ptr noundef nonnull align 8 dereferenceable(16) %79)
  br i1 %80, label %85, label %81

81:                                               ; preds = %78
  %82 = load ptr, ptr %21, align 8, !tbaa !153
  %83 = call noundef zeroext i1 @_ZNK7rocksdb6Status10IsNotFoundEv(ptr noundef nonnull align 8 dereferenceable(16) %82)
  br i1 %83, label %85, label %84

84:                                               ; preds = %81
  store i1 false, ptr %14, align 1
  store i32 1, ptr %31, align 4
  br label %86

85:                                               ; preds = %81, %78, %75
  store i32 0, ptr %31, align 4
  br label %86

86:                                               ; preds = %85, %84, %74
  call void @llvm.lifetime.end.p0(i64 1, ptr %34) #4
  call void @llvm.lifetime.end.p0(i64 8, ptr %33) #4
  %87 = load i32, ptr %31, align 4
  switch i32 %87, label %89 [
    i32 0, label %88
  ]

88:                                               ; preds = %86
  store i32 0, ptr %31, align 4
  br label %89

89:                                               ; preds = %88, %86
  call void @llvm.lifetime.end.p0(i64 8, ptr %32) #4
  %90 = load i32, ptr %31, align 4
  switch i32 %90, label %94 [
    i32 0, label %91
  ]

91:                                               ; preds = %89
  br label %92

92:                                               ; preds = %91
  %93 = call noundef nonnull align 8 dereferenceable(8) ptr @_ZNSt14_List_iteratorIPN7rocksdb16ReadOnlyMemTableEEppEv(ptr noundef nonnull align 8 dereferenceable(8) %29) #4
  br label %43

94:                                               ; preds = %89, %45
  call void @llvm.lifetime.end.p0(i64 8, ptr %30) #4
  call void @llvm.lifetime.end.p0(i64 8, ptr %29) #4
  call void @llvm.lifetime.end.p0(i64 8, ptr %28) #4
  %95 = load i32, ptr %31, align 4
  switch i32 %95, label %99 [
    i32 2, label %96
    i32 1, label %97
  ]

96:                                               ; preds = %94
  store i1 false, ptr %14, align 1
  br label %97

97:                                               ; preds = %96, %94
  %98 = load i1, ptr %14, align 1
  ret i1 %98

99:                                               ; preds = %94
  unreachable
}

; Function Attrs: mustprogress uwtable
define noundef zeroext i1 @_ZN7rocksdb19MemTableListVersion3GetERKNS_9LookupKeyEPNSt7__cxx1112basic_stringIcSt11char_traitsIcESaIcEEEPNS_19PinnableWideColumnsESA_PNS_6StatusEPNS_12MergeContextEPmSH_RKNS_11ReadOptionsEPNS_12ReadCallbackEPb(ptr noundef nonnull align 8 dereferenceable(88) %0, ptr noundef nonnull align 8 dereferenceable(224) %1, ptr noundef %2, ptr noundef %3, ptr noundef %4, ptr noundef %5, ptr noundef %6, ptr noundef %7, ptr noundef %8, ptr noundef nonnull align 8 dereferenceable(168) %9, ptr noundef %10, ptr noundef %11) #5 align 2 {
  %13 = alloca ptr, align 8
  %14 = alloca ptr, align 8
  %15 = alloca ptr, align 8
  %16 = alloca ptr, align 8
  %17 = alloca ptr, align 8
  %18 = alloca ptr, align 8
  %19 = alloca ptr, align 8
  %20 = alloca ptr, align 8
  %21 = alloca ptr, align 8
  %22 = alloca ptr, align 8
  %23 = alloca ptr, align 8
  %24 = alloca ptr, align 8
  store ptr %0, ptr %13, align 8, !tbaa !48
  store ptr %1, ptr %14, align 8, !tbaa !149
  store ptr %2, ptr %15, align 8, !tbaa !25
  store ptr %3, ptr %16, align 8, !tbaa !151
  store ptr %4, ptr %17, align 8, !tbaa !25
  store ptr %5, ptr %18, align 8, !tbaa !153
  store ptr %6, ptr %19, align 8, !tbaa !155
  store ptr %7, ptr %20, align 8, !tbaa !129
  store ptr %8, ptr %21, align 8, !tbaa !129
  store ptr %9, ptr %22, align 8, !tbaa !157
  store ptr %10, ptr %23, align 8, !tbaa !159
  store ptr %11, ptr %24, align 8, !tbaa !161
  %25 = load ptr, ptr %13, align 8
  %26 = getelementptr inbounds nuw %"class.rocksdb::MemTableListVersion", ptr %25, i32 0, i32 0
  %27 = load ptr, ptr %14, align 8, !tbaa !149
  %28 = load ptr, ptr %15, align 8, !tbaa !25
  %29 = load ptr, ptr %16, align 8, !tbaa !151
  %30 = load ptr, ptr %17, align 8, !tbaa !25
  %31 = load ptr, ptr %18, align 8, !tbaa !153
  %32 = load ptr, ptr %19, align 8, !tbaa !155
  %33 = load ptr, ptr %20, align 8, !tbaa !129
  %34 = load ptr, ptr %21, align 8, !tbaa !129
  %35 = load ptr, ptr %22, align 8, !tbaa !157
  %36 = load ptr, ptr %23, align 8, !tbaa !159
  %37 = load ptr, ptr %24, align 8, !tbaa !161
  %38 = call noundef zeroext i1 @_ZN7rocksdb19MemTableListVersion11GetFromListEPNSt7__cxx114listIPNS_16ReadOnlyMemTableESaIS4_EEERKNS_9LookupKeyEPNS1_12basic_stringIcSt11char_traitsIcESaIcEEEPNS_19PinnableWideColumnsESG_PNS_6StatusEPNS_12MergeContextEPmSN_RKNS_11ReadOptionsEPNS_12ReadCallbackEPb(ptr noundef nonnull align 8 dereferenceable(88) %25, ptr noundef %26, ptr noundef nonnull align 8 dereferenceable(224) %27, ptr noundef %28, ptr noundef %29, ptr noundef %30, ptr noundef %31, ptr noundef %32, ptr noundef %33, ptr noundef %34, ptr noundef nonnull align 8 dereferenceable(168) %35, ptr noundef %36, ptr noundef %37)
  ret i1 %38
}